(lp0
S'SSLKALLPPPHLGGISTKELANSVSGNLMVDEQKPLAKEMEVDIRPHARDQLVITQDNNWNLGSMDNSLGNINHKAITYDSLVKVKKLVARARFCPGADSHETEEVFTITLKEWQSSLTQPVLLGRQLRDVSKQRFGEIATVEGGKGTLENNFQSTKRGSTPGNTLMYDLGTFCPGQDILRAAPEFMLSLYLDLTIITFFQITRKNVWDTGGSIRVKQMGPIGNLYIPYLDALLFISALAGCVTKHALLLPVNLSDGCQYFVPGGTGTELEEYAVQCTECDKSFTDSYLLSKHSIVHTGKVKYQCNECDKAFKYSYTLSKHSSVHGVRALYKCKECGKSFTFPPNLRRHSKIHIGDIKYKCKECGKSFTWPPNLAMHKKGHSGLLQHRCNTCSMAFTDPSALNTHVLRHRGDLKFKCNTCSMAFNRPYHLNTHVLRHKRTKKHKCGECSRAFCQVFLLAQHVRIHIAEVKHKCEECSKAFRESYDLTEHVRIHPEHIKVDEDGVTFAERMRML'
p1
aS'ASLAAALRPPHLGEISAKDLANSVSGNLMVCQQRPVAKEIEVDIRPHARDQLIITQEDNRNLGSMNNSLGNINHKVITYDSLVQVKTLMARDTFCPGTDKHNAEEMFTVTVKELDSTLSVPVLLSRQLSDVSKQRFGEVATVSQGKGALENNFDASQRGSTPGNTLMYELGTFCPGMTILKAALEFILSLYLDLTTIIFFQVTTEKTWDTPGAIVVEQVEPILNLYIPYLSPLLVVSVLAGCVTKHALFLPVHLSDGSHYFEPGGTGNGLDECAYECSECSKAFKASSHIATHKKSHFAEHQVQCTECDKSFTSSYLLSKHSIVHTGRVKYQCEECDKAFKQSYTLSKHSIVHGVQALYKCKECGKSFTFPPNLRRHSKIHLGEVKYKCKECGKSFTWPPNLARHKKIHSGCLQHRCNTCSMAFNDGSALNTHVLRHTGDLNHKCNTCSMSFNRPYALNTHVLRHNKTRKHKCEECSRACCQVYHLAQHVRIHTARVKHKCEECSKAFRESSHLTEHVRIHPEHVDIDMTGVSFLERMKIL'
p2
aS'ASNRAALPPPHLGEISAKELANSVSGNLMICQQRPVAKEIEVDIRPHARDQLIITQDNNRNLDSMNNSLGNINHKAITYDSLMKVKTLMARATFCPGTDKHEAEEVLTVTVKEWDSSLNQPVLVSRQLRDVSKQRFGEVATVSQGKGALENNFDPNQRGSTPGMTLMYELGTFCPGQTILRASLEFILSLYLDLTTIIFFNVTREKVWDTPGTIVVEQVEPIVNLFIPYLDPLLFASVLAGCVTKHALLLPVHLSHGCHYFEPGGTGDGLDECAYECSECSKAFKASSHIATHKKSHFADHQVQCTECDKSFTDSGLLSKHSIVHTGKVKYQCEECDKAFKQSYTLSKHSIVHGLQALYKCEECGKSFTHPPNLARHSKIHLGEVQYKCKECGKSFTWPPNLARHKKIHSGVLQHRCNTCSMAFTDSSALNTHVLRHTDDLKHKCNTCSMSFNRVYKLNTHVLRHNKTKKHKCEECSRAFCQVYHLAQHVRIHTARVEHKCEECSKAFRESSHLTEHVRIHPEHVDIDANDVSFLEGMKIL'
p3
aS'ASSRAALPPPHLGEISAKELANSVSGNLMICQQRPVAKEIDVDIRPHARDQLIITQDNNRNLGSMNNSLGIINHKAITYDSLTKVKTLMARATFCPGTDKHEAEEVFTVTVKEWDSSLSLPVLLSRQLRDVSKQRFGEVATVSQGKGALENHFDPSQRGSTPGMTLMYELGTFCPGQTILKAALEFILSLYLDLTTIIFFQVTREKVWDTPGTIVVEQVEPIVNLYIPYLDPLLFANFLAGCVTKHTLFLPVHLCDGCHYFELGGTGDGLDECAYECSECSKAFKASSHIATHKKSHFADHQVQCTECDKSFTDSGLLSKHSIVHTGKVKYQCEECDKAFKQSYTLSKHSIVHGVQALYKCEECGKSFTFPPNLRRHSKIHLGEVQYKCKECGKSFTWPPNLARHKKIHSGVLQHRCNTCSMAFTRSSALNTHVLRHTDDLKHKCNTCSMSFNRVYHLNTHVLRHNKTKKCKCEECSRAFCQVYHLAQHVRIHTARVEHKCEECSKAFRESSHLTEHVRIHPEHVDIDANDVSFLEGMKIL'
p4
aS'ASSRAALPPPHLGEISAKELANSVSGNLMICQQRPVAKEIDVDLRPHARDQLIITQDNNRNLGSMNNSLGNINHKAITYDSLTKVKTLMARATFCPGTDKHEAEEVFTVTVKEWDSSLSLPVLLSRQLRDVSKQRFGEVATVSQGKGALENHFDPSQRASTPGMTLMYELGTFCPGQTILKTALEFILSLYLDLTIIIFFQVTREKVWDTPGTIVVEQVEPIANLYIPYLDPLLFSNVLAGCVTKQTLFLPVHLCDGCHYFEPGGTGDGLDECAYECSECSKAFKASSHIATHKKSHFADHQVQCTECDKSFTDSGLLSKHKIEHTGKVKYQCEECDKAFKQSYTLSKHSIVHGVQALYKCEECGKSFTHPPNLRRHSKIHLGEVQYKCKECGKSFTWPPNLARHKKIHSGVLQHRCNTCSMAFTRSSALNTHVLRHTDDLKHKCNTCSMSFNRVYKLNTHVLRHNKTKKHKCEECSRAFCQVYHLAQHVRIHTARVEHKCEECSKAFRESSHLTEHVRIHPEHVDIDANDVSFLEGMKIL'
p5
aS'ASSRAALPPPHLGEISAKELANSVSGNLMICQQRPVAKEIDVDLRPHARDQLIITQDNNRNLGSMNNSLGNINHKAITYDSLTKVKTLMARATFCPGTDKHEAEEVFTVTVKEWDSSLSLPVLLSRQLRDVSKQRFGEVATVSQGKGALENHFDPSQRGSTPGMTLMYELGTFCPGQTILKAALEFILSLYLDLTTIIFFQVTREKVWDTPGTIVVEQVEPIANLYIPYLDPLLFANVLAGCVTKQTLFLPVHLCDGCHYFEPGGTGDGLDECAYECSECSKAFKASSHIATHKKSHFADHQVQCTECDKSFTDSGLLSKHKIVHTGKVKYQCEECDKAFKQSYTLSKHSIVHGVQALYKCEECGKSFTHPPNLRRHSKIHLGEVQYKCKECGKSFTWPPNLARHKKIHSGVLQHRCNTCSMAFFRSSALNTHVLRHTDDLKHKCNTCSMSFNRVYKLNTHVLRHNKTKKHKCEECSRAFCQVYHLAQHVRIHTARVEHKCEECSKAFRESSHLTEHVRIHPGHVDIDANDVSFLEGMKIL'
p6
aS'STLLLPLPSSRIGDNSQNGTGNSIDGNVLTCQSRPIAKEAAADGRPHAKNGLLVVQESLWNLAVVVKPLSNVDHRAVRYNSLVRLKGLMANFQFCANVENYEAEQIFTLTVQDYDASLTQPVLLGKQLRDGPKGSFRRVASVTQGRGTLWEDFHSARGGSFAGKALMYLVAVFQPGRLLIRTSEEYIRSKTLNLTVIKFFRIIKEAVWSIPCMMQVGRTSQIGYLYIPLLDRLLLASVMAGEVTRANLFLSVSLGENRRLFDPGGICQKLDSCAYECSECSKAFKISSHIATHKKSHCIQPLYKCKECGKSFTWPPNLTRHSKIHSGVLTHKCNTCSMAFTRPYALNQHVRRHTGEIKHKCNECSMAFKQPYALNTHVLRHSQTEEHKCEQCSKAFHQVYHLAQHVRRHAGQVAYKCEECSKAFHQFYHLLQHVRIHSKALDTAKKSVSILKRVRAL'
p7
aS'KFLLLPLPSSGLGDNSQSGTGNSVDGNVLTCQSRPLAKEIESDAKPHAKNQVLVTQESLWNLGAEAKPLSNIDHRAVMYDSLVRLKGLMANRILCPNAENYEDEQIFTLTTEEYDASLVQPVLLGKQLRNGSKGSFGCVAAVTQGQATLKENFHSAKGGSFPGKPLMYYVAIFQPGRLLPRTSQELIRSKTLDLTVIKFFRILKEAVWCLPCMIKVGRTATIGYLYIPLLDRLLLKSVMAGEVTRTNLFLAVSLADNRRWFDPGGICTKLDSCAYECSECSKAFPISSHIATHKKSHTADHVYQCTECDKEFKNSSTLTPHSRVHCVQPLYKCKECGKSFTWPPNLTRHSKIHTGVLTHKCNECSMAFNRPYTLNQHVRRHTGEVKHKCNECSMAFKQPRALNTHVIRHNQTEEHKCEQCSKAFHQVYHMAQHVRRHTGQVAHKCEECSMAFHQSYHLLQHVRIHSEALDTIKKSVSILERVRAL'
p8
aS'KTLLLPLPSSGLGDESQSGTGNSIDGNVLTCQSRPIAKEIESDTKPHAKDQLLVTQESLWNLGSEAKPLSNIDHRAAMYDSLVRLKGLMANRIFCPNAENYEDEQIFTLTVEEYDASLVQEVLLGKQFRNGSKGSFGRGAALTQGQGTEKENFHSAKGGSFPGKALMYYVAIFQKGRLLLRTSQEYIRARTLDLTVIKFFRILKEAVWSIPCMIKVGRTAQIGYLYIPELDRLLLKSVMAGEVTRTNLFLAVSLADNRRWFDPGGNCQKLDSCAYECSECSKAFPISSHIATHKKSHAADHAYQCTECDKEFKNSYTLTPHSRVHSVQPLYKCKECGKSFTWPPNLLRHSKIHTGVLTFKCNECSMAFNRPYTLNQHVRRHTGEVTHKCNECSMAFKQPYALNTHVLRHNQTEEHKCEQCSKAFHQVYHLAQHKRRHTGRVAHKCEECSMAFHQSYHLLQHVRIHSEALDTIKKHVSVLERVKAL'
p9
aS'KTLLLPLPSSGLGDNSQSGTDNSIDGNVLTCQSRPIAQEIESDTKPHAKDQLLVTQESLWNLGSEAKPLSNIDHRAAMYDSLKRLRGLMANRIFCPNAENYEDEQIFTLTVEEYDASLVQPVLLGKQLRTGSKGSFGRVAAVTFGQGTLKENFHSAKGGSFPGKALMFYVAIFQPGRLLLRTSQEYIRSKTLDLTVIKFFRILKEAVWSIPCMIKVGRTAQIGYLYIPELDRLLLKSVMAGEVTRTNLFLAVSLADNRRWFDPGGNCQKLDSCAYECSECSKAFPISSHIATHKKSHAADHAYQCRECDKEFKNSYTLTPHSRVHSVQPLYKCKECGKSFTWPPNLTRHSKIHTGVLTHKCNECSMAFNRPYTLNQHMRRHTGEVKHKCNECSMAFKQPYALNTHVLRHNQTEEHKCEQCSKAFHQVYHLAQHKRRHTGRVAHKCEECSMAFHQSYHLLQHVRIHSEALDTLKKSVSVLERVRAL'
p10
a.